; Function Attrs: mustprogress nounwind uwtable
define hidden void @_ZN13WatcherThread13run_all_tasksEv() local_unnamed_addr #0 align 2 {
  %1 = load ptr, ptr @PeriodicTask_lock, align 8
  %.not.i.i = icmp eq ptr %1, null
  br i1 %.not.i.i, label %_ZN13MonitorLockerD2Ev.exit, label %2

2:                                                ; preds = %0
  tail call void @_ZN5Mutex4lockEv(ptr noundef nonnull align 8 dereferenceable(104) %1) #11
  br label %_ZN13MonitorLockerD2Ev.exit

_ZN13MonitorLockerD2Ev.exit:                      ; preds = %0, %2
  store i8 1, ptr @_ZN13WatcherThread14_run_all_tasksE, align 1
  tail call void @_ZN7Monitor6notifyEv(ptr noundef nonnull align 8 dereferenceable(104) %1) #11
  tail call void @_ZN5Mutex6unlockEv(ptr noundef nonnull align 8 dereferenceable(104) %1) #11
  ret void
}